target datalayout = "e-m:e-p270:32:32-p271:32:32-p272:64:64-i64:64-i128:128-f80:128-n8:16:32:64-S128"
target triple = "x86_64-pc-linux-gnu"

%"struct.Luau::NotNull" = type { ptr }
%"struct.Luau::Json::ArrayEmitter" = type <{ %"struct.Luau::NotNull", i8, i8, [6 x i8] }>

@_ZN4Luau4Json12ArrayEmitterC1ENS_7NotNullINS0_11JsonEmitterEEE = dso_local unnamed_addr alias void (ptr, ptr), ptr @_ZN4Luau4Json12ArrayEmitterC2ENS_7NotNullINS0_11JsonEmitterEEE

; Function Attrs: mustprogress nounwind uwtable
define linkonce_odr dso_local void @_ZN4Luau7NotNullINS_4Json11JsonEmitterEEC2EPS2_(ptr noundef nonnull align 8 dereferenceable(8) %0, ptr noundef %1) unnamed_addr #2 comdat align 2 {
  %3 = alloca ptr, align 8
  %4 = alloca ptr, align 8
  store ptr %0, ptr %3, align 8, !tbaa !17
  store ptr %1, ptr %4, align 8, !tbaa !10
  %5 = load ptr, ptr %3, align 8
  %6 = getelementptr inbounds nuw %"struct.Luau::NotNull", ptr %5, i32 0, i32 0
  %7 = load ptr, ptr %4, align 8, !tbaa !10
  store ptr %7, ptr %6, align 8, !tbaa !19
  ret void
}

; Function Attrs: mustprogress uwtable
define dso_local void @_ZN4Luau4Json11JsonEmitter10writeArrayEv(ptr dead_on_unwind noalias writable sret(%"struct.Luau::Json::ArrayEmitter") align 8 %0, ptr noundef nonnull align 8 dereferenceable(32) %1) #0 align 2 {
  %3 = alloca ptr, align 8
  %4 = alloca ptr, align 8
  %5 = alloca %"struct.Luau::NotNull", align 8
  store ptr %0, ptr %3, align 8
  store ptr %1, ptr %4, align 8, !tbaa !10
  %6 = load ptr, ptr %4, align 8
  call void @_ZN4Luau7NotNullINS_4Json11JsonEmitterEEC2EPS2_(ptr noundef nonnull align 8 dereferenceable(8) %5, ptr noundef %6)
  %7 = getelementptr inbounds nuw %"struct.Luau::NotNull", ptr %5, i32 0, i32 0
  %8 = load ptr, ptr %7, align 8
  call void @_ZN4Luau4Json12ArrayEmitterC1ENS_7NotNullINS0_11JsonEmitterEEE(ptr noundef nonnull align 8 dereferenceable(10) %0, ptr %8)
  ret void
}